target datalayout = "e-m:e-p270:32:32-p271:32:32-p272:64:64-i64:64-i128:128-f80:128-n8:16:32:64-S128"
target triple = "x86_64-pc-linux-gnu"

%struct._object = type { %union.anon, ptr }
%union.anon = type { i64 }
%struct.HMACobject = type { %struct._object, ptr, i8, %struct.PyMutex }
%struct.PyMutex = type { i8 }
%struct.Py_buffer = type { ptr, ptr, i64, i64, i32, i32, ptr, ptr, ptr, ptr, ptr }
%struct._typeobject = type { %struct.PyVarObject, ptr, i64, i64, ptr, i64, ptr, ptr, ptr, ptr, ptr, ptr, ptr, ptr, ptr, ptr, ptr, ptr, ptr, i64, ptr, ptr, ptr, ptr, i64, ptr, ptr, ptr, ptr, ptr, ptr, ptr, ptr, ptr, i64, ptr, ptr, ptr, ptr, ptr, ptr, ptr, ptr, ptr, ptr, ptr, i32, ptr, ptr, i8, i16 }
%struct.PyVarObject = type { %struct._object, i64 }

@PyExc_TypeError = external global ptr, align 8
@.str.45 = private unnamed_addr constant [39 x i8] c"Strings must be encoded before hashing\00", align 1
@.str.46 = private unnamed_addr constant [42 x i8] c"object supporting the buffer API required\00", align 1
@PyExc_BufferError = external global ptr, align 8
@.str.47 = private unnamed_addr constant [32 x i8] c"Buffer must be single dimension\00", align 1
@PyExc_ValueError = external global ptr, align 8

; Function Attrs: inlinehint nounwind uwtable
define internal i32 @_Py_atomic_compare_exchange_uint8(ptr noundef %0, ptr noundef %1, i8 noundef zeroext %2) #4 {
  %4 = alloca ptr, align 8
  %5 = alloca ptr, align 8
  %6 = alloca i8, align 1
  %7 = alloca i8, align 1
  %8 = alloca i8, align 1
  store ptr %0, ptr %4, align 8, !tbaa !21
  store ptr %1, ptr %5, align 8, !tbaa !21
  store i8 %2, ptr %6, align 1, !tbaa !28
  %9 = load ptr, ptr %4, align 8, !tbaa !21
  %10 = load ptr, ptr %5, align 8, !tbaa !21
  %11 = load i8, ptr %6, align 1, !tbaa !28
  store i8 %11, ptr %7, align 1, !tbaa !28
  %12 = load i8, ptr %10, align 1
  %13 = load i8, ptr %7, align 1
  %14 = cmpxchg ptr %9, i8 %12, i8 %13 seq_cst seq_cst, align 1
  %15 = extractvalue { i8, i1 } %14, 0
  %16 = extractvalue { i8, i1 } %14, 1
  br i1 %16, label %18, label %17

17:                                               ; preds = %3
  store i8 %15, ptr %10, align 1
  br label %18

18:                                               ; preds = %17, %3
  %19 = zext i1 %16 to i8
  store i8 %19, ptr %8, align 1, !tbaa !53
  %20 = load i8, ptr %8, align 1, !tbaa !53, !range !38, !noundef !39
  %21 = trunc i8 %20 to i1
  %22 = zext i1 %21 to i32
  ret i32 %22
}

; Function Attrs: inlinehint nounwind uwtable
define internal void @_PyMutex_Unlock(ptr noundef %0) #4 {
  %2 = alloca ptr, align 8
  %3 = alloca i8, align 1
  store ptr %0, ptr %2, align 8, !tbaa !51
  call void @llvm.lifetime.start.p0(i64 1, ptr %3) #9
  store i8 1, ptr %3, align 1, !tbaa !28
  %4 = load ptr, ptr %2, align 8, !tbaa !51
  %5 = getelementptr inbounds nuw %struct.PyMutex, ptr %4, i32 0, i32 0
  %6 = call i32 @_Py_atomic_compare_exchange_uint8(ptr noundef %5, ptr noundef %3, i8 noundef zeroext 0)
  %7 = icmp ne i32 %6, 0
  br i1 %7, label %10, label %8

8:                                                ; preds = %1
  %9 = load ptr, ptr %2, align 8, !tbaa !51
  call void @PyMutex_Unlock(ptr noundef %9)
  br label %10

10:                                               ; preds = %8, %1
  call void @llvm.lifetime.end.p0(i64 1, ptr %3) #9
  ret void
}

; Function Attrs: inlinehint nounwind uwtable
define internal void @_PyMutex_Lock(ptr noundef %0) #4 {
  %2 = alloca ptr, align 8
  %3 = alloca i8, align 1
  store ptr %0, ptr %2, align 8, !tbaa !51
  call void @llvm.lifetime.start.p0(i64 1, ptr %3) #9
  store i8 0, ptr %3, align 1, !tbaa !28
  %4 = load ptr, ptr %2, align 8, !tbaa !51
  %5 = getelementptr inbounds nuw %struct.PyMutex, ptr %4, i32 0, i32 0
  %6 = call i32 @_Py_atomic_compare_exchange_uint8(ptr noundef %5, ptr noundef %3, i8 noundef zeroext 1)
  %7 = icmp ne i32 %6, 0
  br i1 %7, label %10, label %8

8:                                                ; preds = %1
  %9 = load ptr, ptr %2, align 8, !tbaa !51
  call void @PyMutex_Lock(ptr noundef %9)
  br label %10

10:                                               ; preds = %8, %1
  call void @llvm.lifetime.end.p0(i64 1, ptr %3) #9
  ret void
}

; Function Attrs: inlinehint nounwind uwtable
define internal i32 @PyType_HasFeature(ptr noundef %0, i64 noundef %1) #4 {
  %3 = alloca ptr, align 8
  %4 = alloca i64, align 8
  %5 = alloca i64, align 8
  store ptr %0, ptr %3, align 8, !tbaa !16
  store i64 %1, ptr %4, align 8, !tbaa !32
  call void @llvm.lifetime.start.p0(i64 8, ptr %5) #9
  %6 = load ptr, ptr %3, align 8, !tbaa !16
  %7 = getelementptr inbounds nuw %struct._typeobject, ptr %6, i32 0, i32 19
  %8 = load i64, ptr %7, align 8, !tbaa !44
  store i64 %8, ptr %5, align 8, !tbaa !32
  %9 = load i64, ptr %5, align 8, !tbaa !32
  %10 = load i64, ptr %4, align 8, !tbaa !32
  %11 = and i64 %9, %10
  %12 = icmp ne i64 %11, 0
  %13 = zext i1 %12 to i32
  call void @llvm.lifetime.end.p0(i64 8, ptr %5) #9
  ret i32 %13
}

; Function Attrs: inlinehint nounwind uwtable
define internal ptr @_Py_TYPE(ptr noundef %0) #4 {
  %2 = alloca ptr, align 8
  store ptr %0, ptr %2, align 8, !tbaa !14
  %3 = load ptr, ptr %2, align 8, !tbaa !14
  %4 = getelementptr inbounds nuw %struct._object, ptr %3, i32 0, i32 1
  %5 = load ptr, ptr %4, align 8, !tbaa !29
  ret ptr %5
}

; Function Attrs: nounwind uwtable
define internal i32 @_hmac_update(ptr noundef %0, ptr noundef %1) #0 {
  %3 = alloca i32, align 4
  %4 = alloca ptr, align 8
  %5 = alloca ptr, align 8
  %6 = alloca i32, align 4
  %7 = alloca %struct.Py_buffer, align 8
  %8 = alloca i32, align 4
  %9 = alloca ptr, align 8
  store ptr %0, ptr %4, align 8, !tbaa !3
  store ptr %1, ptr %5, align 8, !tbaa !14
  call void @llvm.lifetime.start.p0(i64 4, ptr %6) #9
  call void @llvm.lifetime.start.p0(i64 80, ptr %7) #9
  call void @llvm.memset.p0.i64(ptr align 8 %7, i8 0, i64 80, i1 false)
  br label %10

10:                                               ; preds = %2
  %11 = load ptr, ptr %5, align 8, !tbaa !14
  %12 = call ptr @_Py_TYPE(ptr noundef %11)
  %13 = call i32 @PyType_HasFeature(ptr noundef %12, i64 noundef 268435456)
  %14 = icmp ne i32 %13, 0
  br i1 %14, label %15, label %17

15:                                               ; preds = %10
  %16 = load ptr, ptr @PyExc_TypeError, align 8, !tbaa !14
  call void @PyErr_SetString(ptr noundef %16, ptr noundef @.str.45)
  store i32 0, ptr %3, align 4
  store i32 1, ptr %8, align 4
  br label %84

17:                                               ; preds = %10
  %18 = load ptr, ptr %5, align 8, !tbaa !14
  %19 = call i32 @PyObject_CheckBuffer(ptr noundef %18)
  %20 = icmp ne i32 %19, 0
  br i1 %20, label %23, label %21

21:                                               ; preds = %17
  %22 = load ptr, ptr @PyExc_TypeError, align 8, !tbaa !14
  call void @PyErr_SetString(ptr noundef %22, ptr noundef @.str.46)
  store i32 0, ptr %3, align 4
  store i32 1, ptr %8, align 4
  br label %84

23:                                               ; preds = %17
  %24 = load ptr, ptr %5, align 8, !tbaa !14
  %25 = call i32 @PyObject_GetBuffer(ptr noundef %24, ptr noundef %7, i32 noundef 0)
  %26 = icmp eq i32 %25, -1
  br i1 %26, label %27, label %28

27:                                               ; preds = %23
  store i32 0, ptr %3, align 4
  store i32 1, ptr %8, align 4
  br label %84

28:                                               ; preds = %23
  %29 = getelementptr inbounds nuw %struct.Py_buffer, ptr %7, i32 0, i32 5
  %30 = load i32, ptr %29, align 4, !tbaa !34
  %31 = icmp sgt i32 %30, 1
  br i1 %31, label %32, label %34

32:                                               ; preds = %28
  %33 = load ptr, ptr @PyExc_BufferError, align 8, !tbaa !14
  call void @PyErr_SetString(ptr noundef %33, ptr noundef @.str.47)
  call void @PyBuffer_Release(ptr noundef %7)
  store i32 0, ptr %3, align 4
  store i32 1, ptr %8, align 4
  br label %84

34:                                               ; preds = %28
  br label %35

35:                                               ; preds = %34
  br label %36

36:                                               ; preds = %35
  %37 = load ptr, ptr %4, align 8, !tbaa !3
  %38 = getelementptr inbounds nuw %struct.HMACobject, ptr %37, i32 0, i32 2
  %39 = load i8, ptr %38, align 8, !tbaa !37, !range !38, !noundef !39
  %40 = trunc i8 %39 to i1
  br i1 %40, label %48, label %41

41:                                               ; preds = %36
  %42 = getelementptr inbounds nuw %struct.Py_buffer, ptr %7, i32 0, i32 2
  %43 = load i64, ptr %42, align 8, !tbaa !40
  %44 = icmp sge i64 %43, 2048
  br i1 %44, label %45, label %48

45:                                               ; preds = %41
  %46 = load ptr, ptr %4, align 8, !tbaa !3
  %47 = getelementptr inbounds nuw %struct.HMACobject, ptr %46, i32 0, i32 2
  store i8 1, ptr %47, align 8, !tbaa !37
  br label %48

48:                                               ; preds = %45, %41, %36
  %49 = load ptr, ptr %4, align 8, !tbaa !3
  %50 = getelementptr inbounds nuw %struct.HMACobject, ptr %49, i32 0, i32 2
  %51 = load i8, ptr %50, align 8, !tbaa !37, !range !38, !noundef !39
  %52 = trunc i8 %51 to i1
  br i1 %52, label %53, label %68

53:                                               ; preds = %48
  call void @llvm.lifetime.start.p0(i64 8, ptr %9) #9
  %54 = call ptr @PyEval_SaveThread()
  store ptr %54, ptr %9, align 8, !tbaa !41
  %55 = load ptr, ptr %4, align 8, !tbaa !3
  %56 = getelementptr inbounds nuw %struct.HMACobject, ptr %55, i32 0, i32 3
  call void @_PyMutex_Lock(ptr noundef %56)
  %57 = load ptr, ptr %4, align 8, !tbaa !3
  %58 = getelementptr inbounds nuw %struct.HMACobject, ptr %57, i32 0, i32 1
  %59 = load ptr, ptr %58, align 8, !tbaa !7
  %60 = getelementptr inbounds nuw %struct.Py_buffer, ptr %7, i32 0, i32 0
  %61 = load ptr, ptr %60, align 8, !tbaa !43
  %62 = getelementptr inbounds nuw %struct.Py_buffer, ptr %7, i32 0, i32 2
  %63 = load i64, ptr %62, align 8, !tbaa !40
  %64 = call i32 @HMAC_Update(ptr noundef %59, ptr noundef %61, i64 noundef %63)
  store i32 %64, ptr %6, align 4, !tbaa !19
  %65 = load ptr, ptr %4, align 8, !tbaa !3
  %66 = getelementptr inbounds nuw %struct.HMACobject, ptr %65, i32 0, i32 3
  call void @_PyMutex_Unlock(ptr noundef %66)
  %67 = load ptr, ptr %9, align 8, !tbaa !41
  call void @PyEval_RestoreThread(ptr noundef %67)
  call void @llvm.lifetime.end.p0(i64 8, ptr %9) #9
  br label %77

68:                                               ; preds = %48
  %69 = load ptr, ptr %4, align 8, !tbaa !3
  %70 = getelementptr inbounds nuw %struct.HMACobject, ptr %69, i32 0, i32 1
  %71 = load ptr, ptr %70, align 8, !tbaa !7
  %72 = getelementptr inbounds nuw %struct.Py_buffer, ptr %7, i32 0, i32 0
  %73 = load ptr, ptr %72, align 8, !tbaa !43
  %74 = getelementptr inbounds nuw %struct.Py_buffer, ptr %7, i32 0, i32 2
  %75 = load i64, ptr %74, align 8, !tbaa !40
  %76 = call i32 @HMAC_Update(ptr noundef %71, ptr noundef %73, i64 noundef %75)
  store i32 %76, ptr %6, align 4, !tbaa !19
  br label %77

77:                                               ; preds = %68, %53
  call void @PyBuffer_Release(ptr noundef %7)
  %78 = load i32, ptr %6, align 4, !tbaa !19
  %79 = icmp eq i32 %78, 0
  br i1 %79, label %80, label %83

80:                                               ; preds = %77
  %81 = load ptr, ptr @PyExc_ValueError, align 8, !tbaa !14
  %82 = call ptr (ptr, ptr, ...) @_setException(ptr noundef %81, ptr noundef null)
  store i32 0, ptr %3, align 4
  store i32 1, ptr %8, align 4
  br label %84

83:                                               ; preds = %77
  store i32 1, ptr %3, align 4
  store i32 1, ptr %8, align 4
  br label %84

84:                                               ; preds = %83, %80, %32, %27, %21, %15
  call void @llvm.lifetime.end.p0(i64 80, ptr %7) #9
  call void @llvm.lifetime.end.p0(i64 4, ptr %6) #9
  %85 = load i32, ptr %3, align 4
  ret i32 %85
}