; Function Attrs: nounwind uwtable
define internal fastcc range(i32 0, 2) i32 @_hmac_update(ptr noundef %0, ptr noundef %1) unnamed_addr #0 {
  %3 = alloca %struct.Py_buffer, align 8
  call void @llvm.lifetime.start.p0(i64 80, ptr nonnull %3) #9
  call void @llvm.memset.p0.i64(ptr noundef nonnull align 8 dereferenceable(80) %3, i8 0, i64 80, i1 false)
  %4 = getelementptr i8, ptr %1, i64 8
  %.val = load ptr, ptr %4, align 8, !tbaa !22
  %5 = getelementptr i8, ptr %.val, i64 168
  %.val18 = load i64, ptr %5, align 8, !tbaa !28
  %6 = and i64 %.val18, 268435456
  %.not15 = icmp eq i64 %6, 0
  br i1 %.not15, label %9, label %7

7:                                                ; preds = %2
  %8 = load ptr, ptr @PyExc_TypeError, align 8, !tbaa !23
  tail call void @PyErr_SetString(ptr noundef %8, ptr noundef nonnull @.str.45) #9
  br label %54

9:                                                ; preds = %2
  %10 = tail call i32 @PyObject_CheckBuffer(ptr noundef nonnull %1) #9
  %.not16 = icmp eq i32 %10, 0
  br i1 %.not16, label %11, label %13

11:                                               ; preds = %9
  %12 = load ptr, ptr @PyExc_TypeError, align 8, !tbaa !23
  tail call void @PyErr_SetString(ptr noundef %12, ptr noundef nonnull @.str.46) #9
  br label %54

13:                                               ; preds = %9
  %14 = call i32 @PyObject_GetBuffer(ptr noundef nonnull %1, ptr noundef nonnull %3, i32 noundef 0) #9
  %15 = icmp eq i32 %14, -1
  br i1 %15, label %54, label %16

16:                                               ; preds = %13
  %17 = getelementptr inbounds nuw i8, ptr %3, i64 36
  %18 = load i32, ptr %17, align 4, !tbaa !36
  %19 = icmp sgt i32 %18, 1
  br i1 %19, label %20, label %22

20:                                               ; preds = %16
  %21 = load ptr, ptr @PyExc_BufferError, align 8, !tbaa !23
  call void @PyErr_SetString(ptr noundef %21, ptr noundef nonnull @.str.47) #9
  call void @PyBuffer_Release(ptr noundef nonnull %3) #9
  br label %54

22:                                               ; preds = %16
  %23 = getelementptr inbounds nuw i8, ptr %0, i64 24
  %24 = load i8, ptr %23, align 8, !tbaa !25, !range !26, !noundef !27
  %25 = trunc nuw i8 %24 to i1
  %26 = getelementptr inbounds nuw i8, ptr %3, i64 16
  %27 = load i64, ptr %26, align 8
  %28 = icmp slt i64 %27, 2048
  %or.cond.not = select i1 %25, i1 true, i1 %28
  br i1 %or.cond.not, label %29, label %.thread

.thread:                                          ; preds = %22
  store i8 1, ptr %23, align 8, !tbaa !25
  br label %31

29:                                               ; preds = %22
  %30 = trunc nuw i8 %24 to i1
  br i1 %30, label %31, label %45

31:                                               ; preds = %.thread, %29
  %32 = call ptr @PyEval_SaveThread() #9
  %33 = getelementptr inbounds nuw i8, ptr %0, i64 25
  %34 = cmpxchg ptr %33, i8 0, i8 1 seq_cst seq_cst, align 1
  %35 = extractvalue { i8, i1 } %34, 1
  br i1 %35, label %_PyMutex_Lock.exit, label %36

36:                                               ; preds = %31
  call void @PyMutex_Lock(ptr noundef nonnull %33) #9
  br label %_PyMutex_Lock.exit

_PyMutex_Lock.exit:                               ; preds = %31, %36
  %37 = getelementptr inbounds nuw i8, ptr %0, i64 16
  %38 = load ptr, ptr %37, align 8, !tbaa !3
  %39 = load ptr, ptr %3, align 8, !tbaa !39
  %40 = load i64, ptr %26, align 8, !tbaa !40
  %41 = call i32 @HMAC_Update(ptr noundef %38, ptr noundef %39, i64 noundef %40) #9
  %42 = cmpxchg ptr %33, i8 1, i8 0 seq_cst seq_cst, align 1
  %43 = extractvalue { i8, i1 } %42, 1
  br i1 %43, label %_PyMutex_Unlock.exit, label %44

44:                                               ; preds = %_PyMutex_Lock.exit
  call void @PyMutex_Unlock(ptr noundef nonnull %33) #9
  br label %_PyMutex_Unlock.exit

_PyMutex_Unlock.exit:                             ; preds = %_PyMutex_Lock.exit, %44
  call void @PyEval_RestoreThread(ptr noundef %32) #9
  br label %50

45:                                               ; preds = %29
  %46 = getelementptr inbounds nuw i8, ptr %0, i64 16
  %47 = load ptr, ptr %46, align 8, !tbaa !3
  %48 = load ptr, ptr %3, align 8, !tbaa !39
  %49 = call i32 @HMAC_Update(ptr noundef %47, ptr noundef %48, i64 noundef %27) #9
  br label %50

50:                                               ; preds = %45, %_PyMutex_Unlock.exit
  %.014 = phi i32 [ %41, %_PyMutex_Unlock.exit ], [ %49, %45 ]
  call void @PyBuffer_Release(ptr noundef nonnull %3) #9
  %51 = icmp eq i32 %.014, 0
  br i1 %51, label %52, label %54

52:                                               ; preds = %50
  %53 = load ptr, ptr @PyExc_ValueError, align 8, !tbaa !23
  call void (ptr, ptr, ...) @_setException(ptr noundef %53, ptr noundef null)
  br label %54

54:                                               ; preds = %50, %13, %52, %20, %11, %7
  %.0 = phi i32 [ 0, %7 ], [ 0, %20 ], [ 0, %52 ], [ 0, %11 ], [ 0, %13 ], [ 1, %50 ]
  call void @llvm.lifetime.end.p0(i64 80, ptr nonnull %3) #9
  ret i32 %.0
}